target datalayout = "e-m:e-p270:32:32-p271:32:32-p272:64:64-i64:64-i128:128-f80:128-n8:16:32:64-S128"
target triple = "x86_64-pc-linux-gnu"

%"class.ue2::graph_detail::vertex_descriptor" = type { ptr, i64 }
%"class.ue2::(anonymous namespace)::DistanceSet" = type { %"class.boost::icl::interval_set" }
%"class.boost::icl::interval_set" = type { %"class.boost::icl::interval_base_set" }
%"class.boost::icl::interval_base_set" = type { %"class.std::set" }
%"class.std::set" = type { %"class.std::_Rb_tree.491" }
%"class.std::_Rb_tree.491" = type { %"struct.std::_Rb_tree<boost::icl::closed_interval<unsigned int>, boost::icl::closed_interval<unsigned int>, std::_Identity<boost::icl::closed_interval<unsigned int>>, boost::icl::exclusive_less_than<boost::icl::closed_interval<unsigned int>>>::_Rb_tree_impl" }
%"struct.std::_Rb_tree<boost::icl::closed_interval<unsigned int>, boost::icl::closed_interval<unsigned int>, std::_Identity<boost::icl::closed_interval<unsigned int>>, boost::icl::exclusive_less_than<boost::icl::closed_interval<unsigned int>>>::_Rb_tree_impl" = type { [8 x i8], %"struct.std::_Rb_tree_header" }
%"struct.std::_Rb_tree_header" = type { %"struct.std::_Rb_tree_node_base", i64 }
%"struct.std::_Rb_tree_node_base" = type { i32, ptr, ptr, ptr }
%"struct.std::pair.498" = type { %"class.ue2::graph_detail::vertex_descriptor", %"class.ue2::(anonymous namespace)::DistanceSet" }
%"struct.std::_Hashtable<ue2::graph_detail::vertex_descriptor<ue2::ue2_graph<ue2::NGHolder, ue2::NFAGraphVertexProps, ue2::NFAGraphEdgeProps>>, std::pair<const ue2::graph_detail::vertex_descriptor<ue2::ue2_graph<ue2::NGHolder, ue2::NFAGraphVertexProps, ue2::NFAGraphEdgeProps>>, ue2::(anonymous namespace)::DistanceSet>, std::allocator<std::pair<const ue2::graph_detail::vertex_descriptor<ue2::ue2_graph<ue2::NGHolder, ue2::NFAGraphVertexProps, ue2::NFAGraphEdgeProps>>, ue2::(anonymous namespace)::DistanceSet>>, std::__detail::_Select1st, std::equal_to<ue2::graph_detail::vertex_descriptor<ue2::ue2_graph<ue2::NGHolder, ue2::NFAGraphVertexProps, ue2::NFAGraphEdgeProps>>>, std::hash<ue2::graph_detail::vertex_descriptor<ue2::ue2_graph<ue2::NGHolder, ue2::NFAGraphVertexProps, ue2::NFAGraphEdgeProps>>>, std::__detail::_Mod_range_hashing, std::__detail::_Default_ranged_hash, std::__detail::_Prime_rehash_policy, std::__detail::_Hashtable_traits<true, false, true>>::_Scoped_node" = type { ptr, ptr }
%"struct.std::__detail::_Hash_node_value_base.504" = type { %"struct.__gnu_cxx::__aligned_buffer.505" }
%"struct.__gnu_cxx::__aligned_buffer.505" = type { %"union.std::aligned_storage<64, 8>::type" }
%"union.std::aligned_storage<64, 8>::type" = type { [64 x i8] }

; Function Attrs: mustprogress nounwind uwtable
define linkonce_odr hidden noundef ptr @_ZNKSt8_Rb_treeIN5boost3icl15closed_intervalIjSt4lessEES4_St9_IdentityIS4_ENS1_19exclusive_less_thanIS4_EESaIS4_EE9_M_mbeginEv(ptr noundef nonnull align 8 dereferenceable(48) %0) #1 comdat align 2 {
  %2 = alloca ptr, align 8
  store ptr %0, ptr %2, align 8
  %3 = load ptr, ptr %2, align 8
  %4 = getelementptr inbounds nuw %"class.std::_Rb_tree.491", ptr %3, i32 0, i32 0
  %5 = getelementptr inbounds i8, ptr %4, i64 8
  %6 = getelementptr inbounds nuw %"struct.std::_Rb_tree_header", ptr %5, i32 0, i32 0
  %7 = getelementptr inbounds nuw %"struct.std::_Rb_tree_node_base", ptr %6, i32 0, i32 1
  %8 = load ptr, ptr %7, align 8
  ret ptr %8
}

; Function Attrs: mustprogress nounwind uwtable
define linkonce_odr hidden void @_ZNSt15__new_allocatorISt13_Rb_tree_nodeIN5boost3icl15closed_intervalIjSt4lessEEEED2Ev(ptr noundef nonnull align 1 dereferenceable(1) %0) unnamed_addr #1 comdat align 2 {
  %2 = alloca ptr, align 8
  store ptr %0, ptr %2, align 8
  ret void
}

; Function Attrs: mustprogress nounwind uwtable
define linkonce_odr hidden noundef ptr @_ZNSt8_Rb_treeIN5boost3icl15closed_intervalIjSt4lessEES4_St9_IdentityIS4_ENS1_19exclusive_less_thanIS4_EESaIS4_EE8_M_beginEv(ptr noundef nonnull align 8 dereferenceable(48) %0) #1 comdat align 2 {
  %2 = alloca ptr, align 8
  store ptr %0, ptr %2, align 8
  %3 = load ptr, ptr %2, align 8
  %4 = call noundef ptr @_ZNKSt8_Rb_treeIN5boost3icl15closed_intervalIjSt4lessEES4_St9_IdentityIS4_ENS1_19exclusive_less_thanIS4_EESaIS4_EE9_M_mbeginEv(ptr noundef nonnull align 8 dereferenceable(48) %3) #23
  ret ptr %4
}

; Function Attrs: mustprogress nounwind uwtable
define linkonce_odr hidden void @_ZNSt8_Rb_treeIN5boost3icl15closed_intervalIjSt4lessEES4_St9_IdentityIS4_ENS1_19exclusive_less_thanIS4_EESaIS4_EED2Ev(ptr noundef nonnull align 8 dereferenceable(48) %0) unnamed_addr #1 comdat align 2 personality ptr @__gxx_personality_v0 {
  %2 = alloca ptr, align 8
  store ptr %0, ptr %2, align 8
  %3 = load ptr, ptr %2, align 8
  %4 = call noundef ptr @_ZNSt8_Rb_treeIN5boost3icl15closed_intervalIjSt4lessEES4_St9_IdentityIS4_ENS1_19exclusive_less_thanIS4_EESaIS4_EE8_M_beginEv(ptr noundef nonnull align 8 dereferenceable(48) %3) #23
  invoke void @_ZNSt8_Rb_treeIN5boost3icl15closed_intervalIjSt4lessEES4_St9_IdentityIS4_ENS1_19exclusive_less_thanIS4_EESaIS4_EE8_M_eraseEPSt13_Rb_tree_nodeIS4_E(ptr noundef nonnull align 8 dereferenceable(48) %3, ptr noundef %4)
          to label %5 unwind label %7

5:                                                ; preds = %1
  %6 = getelementptr inbounds nuw %"class.std::_Rb_tree.491", ptr %3, i32 0, i32 0
  call void @_ZNSt15__new_allocatorISt13_Rb_tree_nodeIN5boost3icl15closed_intervalIjSt4lessEEEED2Ev(ptr noundef nonnull align 8 dereferenceable(48) %6) #23
  ret void

7:                                                ; preds = %1
  %8 = landingpad { ptr, i32 }
          catch ptr null
  %9 = extractvalue { ptr, i32 } %8, 0
  call void @__clang_call_terminate(ptr %9) #29
  unreachable
}

; Function Attrs: mustprogress nounwind uwtable
define linkonce_odr hidden void @_ZNSt3setIN5boost3icl15closed_intervalIjSt4lessEENS1_19exclusive_less_thanIS4_EESaIS4_EED2Ev(ptr noundef nonnull align 8 dereferenceable(48) %0) unnamed_addr #1 comdat align 2 {
  %2 = alloca ptr, align 8
  store ptr %0, ptr %2, align 8
  %3 = load ptr, ptr %2, align 8
  %4 = getelementptr inbounds nuw %"class.std::set", ptr %3, i32 0, i32 0
  call void @_ZNSt8_Rb_treeIN5boost3icl15closed_intervalIjSt4lessEES4_St9_IdentityIS4_ENS1_19exclusive_less_thanIS4_EESaIS4_EED2Ev(ptr noundef nonnull align 8 dereferenceable(48) %4) #23
  ret void
}

; Function Attrs: inlinehint mustprogress nounwind uwtable
define linkonce_odr hidden void @_ZN5boost3icl17interval_base_setINS0_12interval_setIjSt4lessNS0_15closed_intervalIjS3_EESaEEjS3_S5_SaED2Ev(ptr noundef nonnull align 8 dereferenceable(48) %0) unnamed_addr #4 comdat align 2 {
  %2 = alloca ptr, align 8
  store ptr %0, ptr %2, align 8
  %3 = load ptr, ptr %2, align 8
  %4 = getelementptr inbounds nuw %"class.boost::icl::interval_base_set", ptr %3, i32 0, i32 0
  call void @_ZNSt3setIN5boost3icl15closed_intervalIjSt4lessEENS1_19exclusive_less_thanIS4_EESaIS4_EED2Ev(ptr noundef nonnull align 8 dereferenceable(48) %4) #23
  ret void
}

; Function Attrs: inlinehint mustprogress nounwind uwtable
define internal void @_ZN3ue212_GLOBAL__N_111DistanceSetD2Ev(ptr noundef nonnull align 8 dereferenceable(48) %0) unnamed_addr #4 align 2 {
  %2 = alloca ptr, align 8
  store ptr %0, ptr %2, align 8
  %3 = load ptr, ptr %2, align 8
  %4 = getelementptr inbounds nuw %"class.ue2::(anonymous namespace)::DistanceSet", ptr %3, i32 0, i32 0
  call void @_ZN5boost3icl17interval_base_setINS0_12interval_setIjSt4lessNS0_15closed_intervalIjS3_EESaEEjS3_S5_SaED2Ev(ptr noundef nonnull align 8 dereferenceable(48) %4) #23
  ret void
}

; Function Attrs: mustprogress nounwind uwtable
define internal void @_ZNSt15__new_allocatorINSt8__detail10_Hash_nodeISt4pairIKN3ue212graph_detail17vertex_descriptorINS3_9ue2_graphINS3_8NGHolderENS3_19NFAGraphVertexPropsENS3_17NFAGraphEdgePropsEEEEENS3_12_GLOBAL__N_111DistanceSetEELb1EEEE10deallocateEPSG_m(ptr noundef nonnull align 1 dereferenceable(1) %0, ptr noundef %1, i64 noundef %2) #1 align 2 {
  %4 = alloca ptr, align 8
  %5 = alloca ptr, align 8
  %6 = alloca i64, align 8
  store ptr %0, ptr %4, align 8
  store ptr %1, ptr %5, align 8
  store i64 %2, ptr %6, align 8
  %7 = load ptr, ptr %5, align 8
  call void @_ZdlPv(ptr noundef %7) #31
  ret void
}

; Function Attrs: inlinehint mustprogress nounwind uwtable
define internal void @_ZNSt4pairIKN3ue212graph_detail17vertex_descriptorINS0_9ue2_graphINS0_8NGHolderENS0_19NFAGraphVertexPropsENS0_17NFAGraphEdgePropsEEEEENS0_12_GLOBAL__N_111DistanceSetEED2Ev(ptr noundef nonnull align 8 dereferenceable(64) %0) unnamed_addr #4 align 2 {
  %2 = alloca ptr, align 8
  store ptr %0, ptr %2, align 8
  %3 = load ptr, ptr %2, align 8
  %4 = getelementptr inbounds nuw %"struct.std::pair.498", ptr %3, i32 0, i32 1
  call void @_ZN3ue212_GLOBAL__N_111DistanceSetD2Ev(ptr noundef nonnull align 8 dereferenceable(48) %4) #23
  ret void
}

; Function Attrs: mustprogress nounwind uwtable
define internal noundef ptr @_ZN9__gnu_cxx16__aligned_bufferISt4pairIKN3ue212graph_detail17vertex_descriptorINS2_9ue2_graphINS2_8NGHolderENS2_19NFAGraphVertexPropsENS2_17NFAGraphEdgePropsEEEEENS2_12_GLOBAL__N_111DistanceSetEEE7_M_addrEv(ptr noundef nonnull align 8 dereferenceable(64) %0) #1 align 2 {
  %2 = alloca ptr, align 8
  store ptr %0, ptr %2, align 8
  %3 = load ptr, ptr %2, align 8
  %4 = getelementptr inbounds nuw %"struct.__gnu_cxx::__aligned_buffer.505", ptr %3, i32 0, i32 0
  ret ptr %4
}

; Function Attrs: mustprogress uwtable
define internal void @_ZNSt16allocator_traitsISaINSt8__detail10_Hash_nodeISt4pairIKN3ue212graph_detail17vertex_descriptorINS3_9ue2_graphINS3_8NGHolderENS3_19NFAGraphVertexPropsENS3_17NFAGraphEdgePropsEEEEENS3_12_GLOBAL__N_111DistanceSetEELb1EEEEE10deallocateERSH_PSG_m(ptr noundef nonnull align 1 dereferenceable(1) %0, ptr noundef %1, i64 noundef %2) #3 align 2 {
  %4 = alloca ptr, align 8
  %5 = alloca ptr, align 8
  %6 = alloca i64, align 8
  store ptr %0, ptr %4, align 8
  store ptr %1, ptr %5, align 8
  store i64 %2, ptr %6, align 8
  %7 = load ptr, ptr %4, align 8
  %8 = load ptr, ptr %5, align 8
  %9 = load i64, ptr %6, align 8
  call void @_ZNSt15__new_allocatorINSt8__detail10_Hash_nodeISt4pairIKN3ue212graph_detail17vertex_descriptorINS3_9ue2_graphINS3_8NGHolderENS3_19NFAGraphVertexPropsENS3_17NFAGraphEdgePropsEEEEENS3_12_GLOBAL__N_111DistanceSetEELb1EEEE10deallocateEPSG_m(ptr noundef nonnull align 1 dereferenceable(1) %7, ptr noundef %8, i64 noundef %9)
  ret void
}

; Function Attrs: mustprogress nounwind uwtable
define internal noundef ptr @_ZNSt19__ptr_traits_ptr_toIPNSt8__detail10_Hash_nodeISt4pairIKN3ue212graph_detail17vertex_descriptorINS3_9ue2_graphINS3_8NGHolderENS3_19NFAGraphVertexPropsENS3_17NFAGraphEdgePropsEEEEENS3_12_GLOBAL__N_111DistanceSetEELb1EEESG_Lb0EE10pointer_toERSG_(ptr noundef nonnull align 8 dereferenceable(80) %0) #1 align 2 {
  %2 = alloca ptr, align 8
  store ptr %0, ptr %2, align 8
  %3 = load ptr, ptr %2, align 8
  ret ptr %3
}

; Function Attrs: mustprogress nounwind uwtable
define internal void @_ZNSt15__new_allocatorINSt8__detail10_Hash_nodeISt4pairIKN3ue212graph_detail17vertex_descriptorINS3_9ue2_graphINS3_8NGHolderENS3_19NFAGraphVertexPropsENS3_17NFAGraphEdgePropsEEEEENS3_12_GLOBAL__N_111DistanceSetEELb1EEEE7destroyISF_EEvPT_(ptr noundef nonnull align 1 dereferenceable(1) %0, ptr noundef %1) #1 align 2 {
  %3 = alloca ptr, align 8
  %4 = alloca ptr, align 8
  store ptr %0, ptr %3, align 8
  store ptr %1, ptr %4, align 8
  %5 = load ptr, ptr %4, align 8
  call void @_ZNSt4pairIKN3ue212graph_detail17vertex_descriptorINS0_9ue2_graphINS0_8NGHolderENS0_19NFAGraphVertexPropsENS0_17NFAGraphEdgePropsEEEEENS0_12_GLOBAL__N_111DistanceSetEED2Ev(ptr noundef nonnull align 8 dereferenceable(64) %5) #23
  ret void
}

; Function Attrs: mustprogress nounwind uwtable
define internal noundef ptr @_ZN9__gnu_cxx16__aligned_bufferISt4pairIKN3ue212graph_detail17vertex_descriptorINS2_9ue2_graphINS2_8NGHolderENS2_19NFAGraphVertexPropsENS2_17NFAGraphEdgePropsEEEEENS2_12_GLOBAL__N_111DistanceSetEEE6_M_ptrEv(ptr noundef nonnull align 8 dereferenceable(64) %0) #1 align 2 {
  %2 = alloca ptr, align 8
  store ptr %0, ptr %2, align 8
  %3 = load ptr, ptr %2, align 8
  %4 = call noundef ptr @_ZN9__gnu_cxx16__aligned_bufferISt4pairIKN3ue212graph_detail17vertex_descriptorINS2_9ue2_graphINS2_8NGHolderENS2_19NFAGraphVertexPropsENS2_17NFAGraphEdgePropsEEEEENS2_12_GLOBAL__N_111DistanceSetEEE7_M_addrEv(ptr noundef nonnull align 8 dereferenceable(64) %3) #23
  ret ptr %4
}

; Function Attrs: mustprogress nounwind uwtable
define internal noundef nonnull align 1 dereferenceable(1) ptr @_ZNSt8__detail21_Hashtable_ebo_helperILi0ESaINS_10_Hash_nodeISt4pairIKN3ue212graph_detail17vertex_descriptorINS3_9ue2_graphINS3_8NGHolderENS3_19NFAGraphVertexPropsENS3_17NFAGraphEdgePropsEEEEENS3_12_GLOBAL__N_111DistanceSetEELb1EEEELb1EE6_M_getEv(ptr noundef nonnull align 1 dereferenceable(1) %0) #1 align 2 {
  %2 = alloca ptr, align 8
  store ptr %0, ptr %2, align 8
  %3 = load ptr, ptr %2, align 8
  ret ptr %3
}

; Function Attrs: mustprogress uwtable
define internal void @_ZNSt8__detail16_Hashtable_allocISaINS_10_Hash_nodeISt4pairIKN3ue212graph_detail17vertex_descriptorINS3_9ue2_graphINS3_8NGHolderENS3_19NFAGraphVertexPropsENS3_17NFAGraphEdgePropsEEEEENS3_12_GLOBAL__N_111DistanceSetEELb1EEEEE22_M_deallocate_node_ptrEPSG_(ptr noundef nonnull align 1 dereferenceable(1) %0, ptr noundef %1) #3 align 2 {
  %3 = alloca ptr, align 8
  %4 = alloca ptr, align 8
  %5 = alloca ptr, align 8
  store ptr %0, ptr %3, align 8
  store ptr %1, ptr %4, align 8
  %6 = load ptr, ptr %3, align 8
  call void @llvm.lifetime.start.p0(i64 8, ptr %5) #23
  %7 = load ptr, ptr %4, align 8
  %8 = call noundef ptr @_ZNSt19__ptr_traits_ptr_toIPNSt8__detail10_Hash_nodeISt4pairIKN3ue212graph_detail17vertex_descriptorINS3_9ue2_graphINS3_8NGHolderENS3_19NFAGraphVertexPropsENS3_17NFAGraphEdgePropsEEEEENS3_12_GLOBAL__N_111DistanceSetEELb1EEESG_Lb0EE10pointer_toERSG_(ptr noundef nonnull align 8 dereferenceable(80) %7) #23
  store ptr %8, ptr %5, align 8
  %9 = call noundef nonnull align 1 dereferenceable(1) ptr @_ZNSt8__detail16_Hashtable_allocISaINS_10_Hash_nodeISt4pairIKN3ue212graph_detail17vertex_descriptorINS3_9ue2_graphINS3_8NGHolderENS3_19NFAGraphVertexPropsENS3_17NFAGraphEdgePropsEEEEENS3_12_GLOBAL__N_111DistanceSetEELb1EEEEE17_M_node_allocatorEv(ptr noundef nonnull align 1 dereferenceable(1) %6)
  %10 = load ptr, ptr %5, align 8
  call void @_ZNSt16allocator_traitsISaINSt8__detail10_Hash_nodeISt4pairIKN3ue212graph_detail17vertex_descriptorINS3_9ue2_graphINS3_8NGHolderENS3_19NFAGraphVertexPropsENS3_17NFAGraphEdgePropsEEEEENS3_12_GLOBAL__N_111DistanceSetEELb1EEEEE10deallocateERSH_PSG_m(ptr noundef nonnull align 1 dereferenceable(1) %9, ptr noundef %10, i64 noundef 1)
  call void @llvm.lifetime.end.p0(i64 8, ptr %5) #23
  ret void
}

; Function Attrs: mustprogress nounwind uwtable
define internal void @_ZNSt16allocator_traitsISaINSt8__detail10_Hash_nodeISt4pairIKN3ue212graph_detail17vertex_descriptorINS3_9ue2_graphINS3_8NGHolderENS3_19NFAGraphVertexPropsENS3_17NFAGraphEdgePropsEEEEENS3_12_GLOBAL__N_111DistanceSetEELb1EEEEE7destroyISF_EEvRSH_PT_(ptr noundef nonnull align 1 dereferenceable(1) %0, ptr noundef %1) #1 align 2 {
  %3 = alloca ptr, align 8
  %4 = alloca ptr, align 8
  store ptr %0, ptr %3, align 8
  store ptr %1, ptr %4, align 8
  %5 = load ptr, ptr %3, align 8
  %6 = load ptr, ptr %4, align 8
  call void @_ZNSt15__new_allocatorINSt8__detail10_Hash_nodeISt4pairIKN3ue212graph_detail17vertex_descriptorINS3_9ue2_graphINS3_8NGHolderENS3_19NFAGraphVertexPropsENS3_17NFAGraphEdgePropsEEEEENS3_12_GLOBAL__N_111DistanceSetEELb1EEEE7destroyISF_EEvPT_(ptr noundef nonnull align 1 dereferenceable(1) %5, ptr noundef %6) #23
  ret void
}

; Function Attrs: mustprogress nounwind uwtable
define internal noundef ptr @_ZNSt8__detail21_Hash_node_value_baseISt4pairIKN3ue212graph_detail17vertex_descriptorINS2_9ue2_graphINS2_8NGHolderENS2_19NFAGraphVertexPropsENS2_17NFAGraphEdgePropsEEEEENS2_12_GLOBAL__N_111DistanceSetEEE9_M_valptrEv(ptr noundef nonnull align 8 dereferenceable(64) %0) #1 align 2 {
  %2 = alloca ptr, align 8
  store ptr %0, ptr %2, align 8
  %3 = load ptr, ptr %2, align 8
  %4 = getelementptr inbounds nuw %"struct.std::__detail::_Hash_node_value_base.504", ptr %3, i32 0, i32 0
  %5 = call noundef ptr @_ZN9__gnu_cxx16__aligned_bufferISt4pairIKN3ue212graph_detail17vertex_descriptorINS2_9ue2_graphINS2_8NGHolderENS2_19NFAGraphVertexPropsENS2_17NFAGraphEdgePropsEEEEENS2_12_GLOBAL__N_111DistanceSetEEE6_M_ptrEv(ptr noundef nonnull align 8 dereferenceable(64) %4) #23
  ret ptr %5
}

; Function Attrs: mustprogress uwtable
define internal noundef nonnull align 1 dereferenceable(1) ptr @_ZNSt8__detail16_Hashtable_allocISaINS_10_Hash_nodeISt4pairIKN3ue212graph_detail17vertex_descriptorINS3_9ue2_graphINS3_8NGHolderENS3_19NFAGraphVertexPropsENS3_17NFAGraphEdgePropsEEEEENS3_12_GLOBAL__N_111DistanceSetEELb1EEEEE17_M_node_allocatorEv(ptr noundef nonnull align 1 dereferenceable(1) %0) #3 align 2 {
  %2 = alloca ptr, align 8
  store ptr %0, ptr %2, align 8
  %3 = load ptr, ptr %2, align 8
  %4 = call noundef nonnull align 1 dereferenceable(1) ptr @_ZNSt8__detail21_Hashtable_ebo_helperILi0ESaINS_10_Hash_nodeISt4pairIKN3ue212graph_detail17vertex_descriptorINS3_9ue2_graphINS3_8NGHolderENS3_19NFAGraphVertexPropsENS3_17NFAGraphEdgePropsEEEEENS3_12_GLOBAL__N_111DistanceSetEELb1EEEELb1EE6_M_getEv(ptr noundef nonnull align 1 dereferenceable(1) %3)
  ret ptr %4
}

; Function Attrs: mustprogress uwtable
define internal void @_ZNSt8__detail16_Hashtable_allocISaINS_10_Hash_nodeISt4pairIKN3ue212graph_detail17vertex_descriptorINS3_9ue2_graphINS3_8NGHolderENS3_19NFAGraphVertexPropsENS3_17NFAGraphEdgePropsEEEEENS3_12_GLOBAL__N_111DistanceSetEELb1EEEEE18_M_deallocate_nodeEPSG_(ptr noundef nonnull align 1 dereferenceable(1) %0, ptr noundef %1) #3 align 2 {
  %3 = alloca ptr, align 8
  %4 = alloca ptr, align 8
  store ptr %0, ptr %3, align 8
  store ptr %1, ptr %4, align 8
  %5 = load ptr, ptr %3, align 8
  %6 = call noundef nonnull align 1 dereferenceable(1) ptr @_ZNSt8__detail16_Hashtable_allocISaINS_10_Hash_nodeISt4pairIKN3ue212graph_detail17vertex_descriptorINS3_9ue2_graphINS3_8NGHolderENS3_19NFAGraphVertexPropsENS3_17NFAGraphEdgePropsEEEEENS3_12_GLOBAL__N_111DistanceSetEELb1EEEEE17_M_node_allocatorEv(ptr noundef nonnull align 1 dereferenceable(1) %5)
  %7 = load ptr, ptr %4, align 8
  %8 = getelementptr inbounds i8, ptr %7, i64 8
  %9 = call noundef ptr @_ZNSt8__detail21_Hash_node_value_baseISt4pairIKN3ue212graph_detail17vertex_descriptorINS2_9ue2_graphINS2_8NGHolderENS2_19NFAGraphVertexPropsENS2_17NFAGraphEdgePropsEEEEENS2_12_GLOBAL__N_111DistanceSetEEE9_M_valptrEv(ptr noundef nonnull align 8 dereferenceable(64) %8) #23
  call void @_ZNSt16allocator_traitsISaINSt8__detail10_Hash_nodeISt4pairIKN3ue212graph_detail17vertex_descriptorINS3_9ue2_graphINS3_8NGHolderENS3_19NFAGraphVertexPropsENS3_17NFAGraphEdgePropsEEEEENS3_12_GLOBAL__N_111DistanceSetEELb1EEEEE7destroyISF_EEvRSH_PT_(ptr noundef nonnull align 1 dereferenceable(1) %6, ptr noundef %9) #23
  %10 = load ptr, ptr %4, align 8
  call void @_ZNSt8__detail16_Hashtable_allocISaINS_10_Hash_nodeISt4pairIKN3ue212graph_detail17vertex_descriptorINS3_9ue2_graphINS3_8NGHolderENS3_19NFAGraphVertexPropsENS3_17NFAGraphEdgePropsEEEEENS3_12_GLOBAL__N_111DistanceSetEELb1EEEEE22_M_deallocate_node_ptrEPSG_(ptr noundef nonnull align 1 dereferenceable(1) %5, ptr noundef %10)
  ret void
}

; Function Attrs: mustprogress nounwind uwtable
define internal void @_ZNSt10_HashtableIN3ue212graph_detail17vertex_descriptorINS0_9ue2_graphINS0_8NGHolderENS0_19NFAGraphVertexPropsENS0_17NFAGraphEdgePropsEEEEESt4pairIKS8_NS0_12_GLOBAL__N_111DistanceSetEESaISD_ENSt8__detail10_Select1stESt8equal_toIS8_ESt4hashIS8_ENSF_18_Mod_range_hashingENSF_20_Default_ranged_hashENSF_20_Prime_rehash_policyENSF_17_Hashtable_traitsILb1ELb0ELb1EEEE12_Scoped_nodeD2Ev(ptr noundef nonnull align 8 dereferenceable(16) %0) unnamed_addr #1 align 2 personality ptr @__gxx_personality_v0 {
  %2 = alloca ptr, align 8
  store ptr %0, ptr %2, align 8
  %3 = load ptr, ptr %2, align 8
  %4 = getelementptr inbounds nuw %"struct.std::_Hashtable<ue2::graph_detail::vertex_descriptor<ue2::ue2_graph<ue2::NGHolder, ue2::NFAGraphVertexProps, ue2::NFAGraphEdgeProps>>, std::pair<const ue2::graph_detail::vertex_descriptor<ue2::ue2_graph<ue2::NGHolder, ue2::NFAGraphVertexProps, ue2::NFAGraphEdgeProps>>, ue2::(anonymous namespace)::DistanceSet>, std::allocator<std::pair<const ue2::graph_detail::vertex_descriptor<ue2::ue2_graph<ue2::NGHolder, ue2::NFAGraphVertexProps, ue2::NFAGraphEdgeProps>>, ue2::(anonymous namespace)::DistanceSet>>, std::__detail::_Select1st, std::equal_to<ue2::graph_detail::vertex_descriptor<ue2::ue2_graph<ue2::NGHolder, ue2::NFAGraphVertexProps, ue2::NFAGraphEdgeProps>>>, std::hash<ue2::graph_detail::vertex_descriptor<ue2::ue2_graph<ue2::NGHolder, ue2::NFAGraphVertexProps, ue2::NFAGraphEdgeProps>>>, std::__detail::_Mod_range_hashing, std::__detail::_Default_ranged_hash, std::__detail::_Prime_rehash_policy, std::__detail::_Hashtable_traits<true, false, true>>::_Scoped_node", ptr %3, i32 0, i32 1
  %5 = load ptr, ptr %4, align 8
  %6 = icmp ne ptr %5, null
  br i1 %6, label %7, label %13

7:                                                ; preds = %1
  %8 = getelementptr inbounds nuw %"struct.std::_Hashtable<ue2::graph_detail::vertex_descriptor<ue2::ue2_graph<ue2::NGHolder, ue2::NFAGraphVertexProps, ue2::NFAGraphEdgeProps>>, std::pair<const ue2::graph_detail::vertex_descriptor<ue2::ue2_graph<ue2::NGHolder, ue2::NFAGraphVertexProps, ue2::NFAGraphEdgeProps>>, ue2::(anonymous namespace)::DistanceSet>, std::allocator<std::pair<const ue2::graph_detail::vertex_descriptor<ue2::ue2_graph<ue2::NGHolder, ue2::NFAGraphVertexProps, ue2::NFAGraphEdgeProps>>, ue2::(anonymous namespace)::DistanceSet>>, std::__detail::_Select1st, std::equal_to<ue2::graph_detail::vertex_descriptor<ue2::ue2_graph<ue2::NGHolder, ue2::NFAGraphVertexProps, ue2::NFAGraphEdgeProps>>>, std::hash<ue2::graph_detail::vertex_descriptor<ue2::ue2_graph<ue2::NGHolder, ue2::NFAGraphVertexProps, ue2::NFAGraphEdgeProps>>>, std::__detail::_Mod_range_hashing, std::__detail::_Default_ranged_hash, std::__detail::_Prime_rehash_policy, std::__detail::_Hashtable_traits<true, false, true>>::_Scoped_node", ptr %3, i32 0, i32 0
  %9 = load ptr, ptr %8, align 8
  %10 = getelementptr inbounds nuw %"struct.std::_Hashtable<ue2::graph_detail::vertex_descriptor<ue2::ue2_graph<ue2::NGHolder, ue2::NFAGraphVertexProps, ue2::NFAGraphEdgeProps>>, std::pair<const ue2::graph_detail::vertex_descriptor<ue2::ue2_graph<ue2::NGHolder, ue2::NFAGraphVertexProps, ue2::NFAGraphEdgeProps>>, ue2::(anonymous namespace)::DistanceSet>, std::allocator<std::pair<const ue2::graph_detail::vertex_descriptor<ue2::ue2_graph<ue2::NGHolder, ue2::NFAGraphVertexProps, ue2::NFAGraphEdgeProps>>, ue2::(anonymous namespace)::DistanceSet>>, std::__detail::_Select1st, std::equal_to<ue2::graph_detail::vertex_descriptor<ue2::ue2_graph<ue2::NGHolder, ue2::NFAGraphVertexProps, ue2::NFAGraphEdgeProps>>>, std::hash<ue2::graph_detail::vertex_descriptor<ue2::ue2_graph<ue2::NGHolder, ue2::NFAGraphVertexProps, ue2::NFAGraphEdgeProps>>>, std::__detail::_Mod_range_hashing, std::__detail::_Default_ranged_hash, std::__detail::_Prime_rehash_policy, std::__detail::_Hashtable_traits<true, false, true>>::_Scoped_node", ptr %3, i32 0, i32 1
  %11 = load ptr, ptr %10, align 8
  invoke void @_ZNSt8__detail16_Hashtable_allocISaINS_10_Hash_nodeISt4pairIKN3ue212graph_detail17vertex_descriptorINS3_9ue2_graphINS3_8NGHolderENS3_19NFAGraphVertexPropsENS3_17NFAGraphEdgePropsEEEEENS3_12_GLOBAL__N_111DistanceSetEELb1EEEEE18_M_deallocate_nodeEPSG_(ptr noundef nonnull align 1 dereferenceable(1) %9, ptr noundef %11)
          to label %12 unwind label %14

12:                                               ; preds = %7
  br label %13

13:                                               ; preds = %12, %1
  ret void

14:                                               ; preds = %7
  %15 = landingpad { ptr, i32 }
          catch ptr null
  %16 = extractvalue { ptr, i32 } %15, 0
  call void @__clang_call_terminate(ptr %16) #29
  unreachable
}