; Function Attrs: mustprogress nounwind uwtable
define internal fastcc void @_ZNSt10_HashtableIN3ue212graph_detail17vertex_descriptorINS0_9ue2_graphINS0_8NGHolderENS0_19NFAGraphVertexPropsENS0_17NFAGraphEdgePropsEEEEESt4pairIKS8_NS0_12_GLOBAL__N_111DistanceSetEESaISD_ENSt8__detail10_Select1stESt8equal_toIS8_ESt4hashIS8_ENSF_18_Mod_range_hashingENSF_20_Default_ranged_hashENSF_20_Prime_rehash_policyENSF_17_Hashtable_traitsILb1ELb0ELb1EEEE12_Scoped_nodeD2Ev(ptr %.8.val) unnamed_addr #4 align 2 personality ptr @__gxx_personality_v0 {
  %.not = icmp eq ptr %.8.val, null
  br i1 %.not, label %8, label %1

1:                                                ; preds = %0
  %2 = getelementptr inbounds nuw i8, ptr %.8.val, i64 24
  %3 = getelementptr inbounds nuw i8, ptr %.8.val, i64 40
  %4 = load ptr, ptr %3, align 8
  invoke void @_ZNSt8_Rb_treeIN5boost3icl15closed_intervalIjSt4lessEES4_St9_IdentityIS4_ENS1_19exclusive_less_thanIS4_EESaIS4_EE8_M_eraseEPSt13_Rb_tree_nodeIS4_E(ptr noundef nonnull align 8 dereferenceable(48) %2, ptr noundef %4)
          to label %_ZNSt8__detail16_Hashtable_allocISaINS_10_Hash_nodeISt4pairIKN3ue212graph_detail17vertex_descriptorINS3_9ue2_graphINS3_8NGHolderENS3_19NFAGraphVertexPropsENS3_17NFAGraphEdgePropsEEEEENS3_12_GLOBAL__N_111DistanceSetEELb1EEEEE18_M_deallocate_nodeEPSG_.exit unwind label %5

5:                                                ; preds = %1
  %6 = landingpad { ptr, i32 }
          catch ptr null
  %7 = extractvalue { ptr, i32 } %6, 0
  tail call void @__clang_call_terminate(ptr %7) #36
  unreachable

_ZNSt8__detail16_Hashtable_allocISaINS_10_Hash_nodeISt4pairIKN3ue212graph_detail17vertex_descriptorINS3_9ue2_graphINS3_8NGHolderENS3_19NFAGraphVertexPropsENS3_17NFAGraphEdgePropsEEEEENS3_12_GLOBAL__N_111DistanceSetEELb1EEEEE18_M_deallocate_nodeEPSG_.exit: ; preds = %1
  tail call void @_ZdlPv(ptr noundef nonnull %.8.val) #32
  br label %8

8:                                                ; preds = %_ZNSt8__detail16_Hashtable_allocISaINS_10_Hash_nodeISt4pairIKN3ue212graph_detail17vertex_descriptorINS3_9ue2_graphINS3_8NGHolderENS3_19NFAGraphVertexPropsENS3_17NFAGraphEdgePropsEEEEENS3_12_GLOBAL__N_111DistanceSetEELb1EEEEE18_M_deallocate_nodeEPSG_.exit, %0
  ret void
}